; ModuleID = '42/696.c'
source_filename = "42/696.c"
target datalayout = "e-m:e-p270:32:32-p271:32:32-p272:64:64-i64:64-f80:128-n8:16:32:64-S128"
target triple = "x86_64-pc-linux-gnu"

@.str = private unnamed_addr constant [3 x i8] c"%d\00", align 1
@.str.1 = private unnamed_addr constant [4 x i8] c" %d\00", align 1

; Function Attrs: noinline nounwind uwtable
define dso_local i32 @main() #0 {
  %1 = alloca i32, align 4
  %2 = alloca i32, align 4
  %3 = alloca i32*, align 8
  %4 = alloca i32, align 4
  %5 = alloca i32, align 4
  %6 = alloca i32, align 4
  %7 = alloca i32, align 4
  store i32 0, i32* %1, align 4
  %8 = call i32 (i8*, ...) @__isoc99_scanf(i8* getelementptr inbounds ([3 x i8], [3 x i8]* @.str, i64 0, i64 0), i32* %2)
  %9 = load i32, i32* %2, align 4
  %10 = sext i32 %9 to i64
  %11 = mul i64 %10, 4
  %12 = call noalias i8* @malloc(i64 %11) #3
  %13 = bitcast i8* %12 to i32*
  store i32* %13, i32** %3, align 8
  store i32 0, i32* %4, align 4
  br label %14

14:                                               ; preds = %25, %0
  %15 = load i32, i32* %4, align 4
  %16 = load i32, i32* %2, align 4
  %17 = sub nsw i32 %16, 1
  %18 = icmp sle i32 %15, %17
  br i1 %18, label %19, label %28

19:                                               ; preds = %14
  %20 = load i32*, i32** %3, align 8
  %21 = load i32, i32* %4, align 4
  %22 = sext i32 %21 to i64
  %23 = getelementptr inbounds i32, i32* %20, i64 %22
  %24 = call i32 (i8*, ...) @__isoc99_scanf(i8* getelementptr inbounds ([3 x i8], [3 x i8]* @.str, i64 0, i64 0), i32* %23)
  br label %25

25:                                               ; preds = %19
  %26 = load i32, i32* %4, align 4
  %27 = add nsw i32 %26, 1
  store i32 %27, i32* %4, align 4
  br label %14

28:                                               ; preds = %14
  %29 = call i32 (i8*, ...) @__isoc99_scanf(i8* getelementptr inbounds ([3 x i8], [3 x i8]* @.str, i64 0, i64 0), i32* %5)
  store i32 0, i32* %6, align 4
  store i32 0, i32* %7, align 4
  br label %30

30:                                               ; preds = %64, %28
  %31 = load i32, i32* %7, align 4
  %32 = load i32, i32* %2, align 4
  %33 = sub nsw i32 %32, 1
  %34 = icmp sle i32 %31, %33
  br i1 %34, label %35, label %67

35:                                               ; preds = %30
  %36 = load i32*, i32** %3, align 8
  %37 = load i32, i32* %7, align 4
  %38 = sext i32 %37 to i64
  %39 = getelementptr inbounds i32, i32* %36, i64 %38
  %40 = load i32, i32* %39, align 4
  %41 = load i32, i32* %5, align 4
  %42 = icmp ne i32 %40, %41
  br i1 %42, label %43, label %63

43:                                               ; preds = %35
  %44 = load i32, i32* %6, align 4
  %45 = add nsw i32 %44, 1
  store i32 %45, i32* %6, align 4
  %46 = load i32, i32* %6, align 4
  %47 = icmp eq i32 %46, 1
  br i1 %47, label %48, label %55

48:                                               ; preds = %43
  %49 = load i32*, i32** %3, align 8
  %50 = load i32, i32* %7, align 4
  %51 = sext i32 %50 to i64
  %52 = getelementptr inbounds i32, i32* %49, i64 %51
  %53 = load i32, i32* %52, align 4
  %54 = call i32 (i8*, ...) @printf(i8* getelementptr inbounds ([3 x i8], [3 x i8]* @.str, i64 0, i64 0), i32 %53)
  br label %62

55:                                               ; preds = %43
  %56 = load i32*, i32** %3, align 8
  %57 = load i32, i32* %7, align 4
  %58 = sext i32 %57 to i64
  %59 = getelementptr inbounds i32, i32* %56, i64 %58
  %60 = load i32, i32* %59, align 4
  %61 = call i32 (i8*, ...) @printf(i8* getelementptr inbounds ([4 x i8], [4 x i8]* @.str.1, i64 0, i64 0), i32 %60)
  br label %62

62:                                               ; preds = %55, %48
  br label %63

63:                                               ; preds = %62, %35
  br label %64

64:                                               ; preds = %63
  %65 = load i32, i32* %7, align 4
  %66 = add nsw i32 %65, 1
  store i32 %66, i32* %7, align 4
  br label %30

67:                                               ; preds = %30
  %68 = load i32, i32* %1, align 4
  ret i32 %68
}

declare dso_local i32 @__isoc99_scanf(i8*, ...) #1

; Function Attrs: nounwind
declare dso_local noalias i8* @malloc(i64) #2

declare dso_local i32 @printf(i8*, ...) #1


!llvm.module.flags = !{!0}
!llvm.ident = !{!1}

!0 = !{i32 1, !"wchar_size", i32 4}
!1 = !{!"clang version 10.0.0-4ubuntu1 "}
